; ModuleID = 'source-C-CXX/52/362.c'
source_filename = "source-C-CXX/52/362.c"
target datalayout = "e-m:e-p270:32:32-p271:32:32-p272:64:64-i64:64-f80:128-n8:16:32:64-S128"
target triple = "x86_64-pc-linux-gnu"

@.str = private unnamed_addr constant [3 x i8] c"%d\00", align 1

; Function Attrs: nofree nounwind sspstrong uwtable
define dso_local void @main() local_unnamed_addr #0 {
  %1 = alloca [100 x i32], align 16
  %2 = alloca [100 x i32], align 16
  %3 = alloca i32, align 4
  %4 = bitcast [100 x i32]* %1 to i8*
  call void @llvm.lifetime.start.p0i8(i64 400, i8* nonnull %4) #4
  %5 = bitcast [100 x i32]* %2 to i8*
  call void @llvm.lifetime.start.p0i8(i64 400, i8* nonnull %5) #4
  %6 = bitcast i32* %3 to i8*
  call void @llvm.lifetime.start.p0i8(i64 4, i8* nonnull %6) #4
  %7 = call i32 (i8*, ...) @__isoc99_scanf(i8* getelementptr inbounds ([3 x i8], [3 x i8]* @.str, i64 0, i64 0), i32* nonnull %3)
  %8 = load i32, i32* %3, align 4, !tbaa !5
  %9 = icmp sgt i32 %8, 0
  br i1 %9, label %16, label %58

10:                                               ; preds = %41
  %11 = icmp sgt i32 %42, 0
  br i1 %11, label %12, label %58

12:                                               ; preds = %10
  %13 = add nsw i32 %42, -1
  %14 = zext i32 %13 to i64
  %15 = zext i32 %42 to i64
  br label %47

16:                                               ; preds = %0, %41
  %17 = phi i64 [ %43, %41 ], [ 0, %0 ]
  %18 = phi i32 [ %42, %41 ], [ 0, %0 ]
  %19 = getelementptr inbounds [100 x i32], [100 x i32]* %1, i64 0, i64 %17
  %20 = call i32 (i8*, ...) @__isoc99_scanf(i8* getelementptr inbounds ([3 x i8], [3 x i8]* @.str, i64 0, i64 0), i32* nonnull %19)
  %21 = icmp eq i64 %17, 0
  br i1 %21, label %32, label %22

22:                                               ; preds = %16
  %23 = load i32, i32* %19, align 4, !tbaa !5
  br label %24

24:                                               ; preds = %22, %29
  %25 = phi i64 [ 0, %22 ], [ %30, %29 ]
  %26 = getelementptr inbounds [100 x i32], [100 x i32]* %1, i64 0, i64 %25
  %27 = load i32, i32* %26, align 4, !tbaa !5
  %28 = icmp eq i32 %27, %23
  br i1 %28, label %32, label %29

29:                                               ; preds = %24
  %30 = add nuw nsw i64 %25, 1
  %31 = icmp eq i64 %30, %17
  br i1 %31, label %32, label %24, !llvm.loop !9

32:                                               ; preds = %29, %24, %16
  %33 = phi i64 [ 0, %16 ], [ %25, %24 ], [ %17, %29 ]
  %34 = and i64 %33, 4294967295
  %35 = icmp eq i64 %34, %17
  br i1 %35, label %36, label %41

36:                                               ; preds = %32
  %37 = load i32, i32* %19, align 4, !tbaa !5
  %38 = sext i32 %18 to i64
  %39 = getelementptr inbounds [100 x i32], [100 x i32]* %2, i64 0, i64 %38
  store i32 %37, i32* %39, align 4, !tbaa !5
  %40 = add nsw i32 %18, 1
  br label %41

41:                                               ; preds = %32, %36
  %42 = phi i32 [ %40, %36 ], [ %18, %32 ]
  %43 = add nuw nsw i64 %17, 1
  %44 = load i32, i32* %3, align 4, !tbaa !5
  %45 = sext i32 %44 to i64
  %46 = icmp slt i64 %43, %45
  br i1 %46, label %16, label %10, !llvm.loop !11

47:                                               ; preds = %12, %55
  %48 = phi i64 [ 0, %12 ], [ %56, %55 ]
  %49 = getelementptr inbounds [100 x i32], [100 x i32]* %2, i64 0, i64 %48
  %50 = load i32, i32* %49, align 4, !tbaa !5
  %51 = call i32 (i8*, ...) @printf(i8* nonnull dereferenceable(1) getelementptr inbounds ([3 x i8], [3 x i8]* @.str, i64 0, i64 0), i32 %50)
  %52 = icmp ult i64 %48, %14
  br i1 %52, label %53, label %55

53:                                               ; preds = %47
  %54 = call i32 @putchar(i32 44)
  br label %55

55:                                               ; preds = %47, %53
  %56 = add nuw nsw i64 %48, 1
  %57 = icmp eq i64 %56, %15
  br i1 %57, label %58, label %47, !llvm.loop !12

58:                                               ; preds = %55, %0, %10
  call void @llvm.lifetime.end.p0i8(i64 4, i8* nonnull %6) #4
  call void @llvm.lifetime.end.p0i8(i64 400, i8* nonnull %5) #4
  call void @llvm.lifetime.end.p0i8(i64 400, i8* nonnull %4) #4
  ret void
}

; Function Attrs: argmemonly mustprogress nofree nosync nounwind willreturn
declare void @llvm.lifetime.start.p0i8(i64 immarg, i8* nocapture) #1

; Function Attrs: nofree nounwind
declare noundef i32 @__isoc99_scanf(i8* nocapture noundef readonly, ...) local_unnamed_addr #2

; Function Attrs: nofree nounwind
declare noundef i32 @printf(i8* nocapture noundef readonly, ...) local_unnamed_addr #2

; Function Attrs: argmemonly mustprogress nofree nosync nounwind willreturn
declare void @llvm.lifetime.end.p0i8(i64 immarg, i8* nocapture) #1

; Function Attrs: nofree nounwind
declare noundef i32 @putchar(i32 noundef) local_unnamed_addr #3


!llvm.module.flags = !{!0, !1, !2, !3}
!llvm.ident = !{!4}

!0 = !{i32 1, !"wchar_size", i32 4}
!1 = !{i32 7, !"PIC Level", i32 2}
!2 = !{i32 7, !"PIE Level", i32 2}
!3 = !{i32 7, !"uwtable", i32 1}
!4 = !{!"clang version 13.0.0"}
!5 = !{!6, !6, i64 0}
!6 = !{!"int", !7, i64 0}
!7 = !{!"omnipotent char", !8, i64 0}
!8 = !{!"Simple C/C++ TBAA"}
!9 = distinct !{!9, !10}
!10 = !{!"llvm.loop.mustprogress"}
!11 = distinct !{!11, !10}
!12 = distinct !{!12, !10}
